
scala.elf:     file format elf32-littleriscv


Disassembly of section .text:

80000000 <_start>:
80000000:	00020117          	auipc	sp,0x20
80000004:	00010113          	mv	sp,sp
80000008:	00010297          	auipc	t0,0x10
8000000c:	04028293          	addi	t0,t0,64 # 80010048 <output>
80000010:	00010317          	auipc	t1,0x10
80000014:	06030313          	addi	t1,t1,96 # 80010070 <_bss_end>

80000018 <clear_bss>:
80000018:	0062d863          	bge	t0,t1,80000028 <done_bss>
8000001c:	0002a023          	sw	zero,0(t0)
80000020:	00428293          	addi	t0,t0,4
80000024:	ff5ff06f          	j	80000018 <clear_bss>

80000028 <done_bss>:
80000028:	008000ef          	jal	80000030 <main>
8000002c:	0000006f          	j	8000002c <done_bss+0x4>

80000030 <main>:
80000030:	80010537          	lui	a0,0x80010
80000034:	00050513          	mv	a0,a0
80000038:	80010337          	lui	t1,0x80010
8000003c:	01f50893          	addi	a7,a0,31 # 8001001f <input_data+0x1f>
80000040:	04830313          	addi	t1,t1,72 # 80010048 <output>
80000044:	04850513          	addi	a0,a0,72
80000048:	01f00813          	li	a6,31
8000004c:	80010fb7          	lui	t6,0x80010
80000050:	f8000f13          	li	t5,-128
80000054:	07f00e93          	li	t4,127
80000058:	02800e13          	li	t3,40
8000005c:	028f8713          	addi	a4,t6,40 # 80010028 <fir_coeffs>
80000060:	00088613          	mv	a2,a7
80000064:	00000793          	li	a5,0
80000068:	00070683          	lb	a3,0(a4)
8000006c:	00060583          	lb	a1,0(a2)
80000070:	00170713          	addi	a4,a4,1
80000074:	fff60613          	addi	a2,a2,-1
80000078:	02b686b3          	mul	a3,a3,a1
8000007c:	00d787b3          	add	a5,a5,a3
80000080:	fea714e3          	bne	a4,a0,80000068 <main+0x38>
80000084:	04078793          	addi	a5,a5,64
80000088:	4077d793          	srai	a5,a5,0x7
8000008c:	01e7d463          	bge	a5,t5,80000094 <main+0x64>
80000090:	f8000793          	li	a5,-128
80000094:	00fed463          	bge	t4,a5,8000009c <main+0x6c>
80000098:	07f00793          	li	a5,127
8000009c:	01030733          	add	a4,t1,a6
800000a0:	00f70023          	sb	a5,0(a4)
800000a4:	00180813          	addi	a6,a6,1
800000a8:	00188893          	addi	a7,a7,1
800000ac:	fbc818e3          	bne	a6,t3,8000005c <main+0x2c>
800000b0:	800207b7          	lui	a5,0x80020
800000b4:	00100713          	li	a4,1
800000b8:	fee7ae23          	sw	a4,-4(a5) # 8001fffc <_done_flag>
800000bc:	00000513          	li	a0,0
800000c0:	00008067          	ret

Disassembly of section .rodata:

80010000 <input_data>:
80010000:	0008                	.insn	2, 0x0008
80010002:	fbf9                	.insn	2, 0xfbf9
80010004:	03f1f9ef          	jal	s3,8002f842 <_stack_top+0xf842>
80010008:	fd00                	.insn	2, 0xfd00
8001000a:	0104                	.insn	2, 0x0104
8001000c:	0414                	.insn	2, 0x0414
8001000e:	00ff f40d 1323 0c17 	.insn	10, 0x02050c171323f40d00ff
80010016:	0205 
80010018:	f5fe                	.insn	2, 0xf5fe
8001001a:	eaf9                	.insn	2, 0xeaf9
8001001c:	1dec                	.insn	2, 0x1dec
8001001e:	140600ef          	jal	8007015e <_stack_top+0x5015e>
80010022:	f8e9                	.insn	2, 0xf8e9
80010024:	0302                	.insn	2, 0x0302
80010026:	f9e5                	.insn	2, 0xf9e5

80010028 <fir_coeffs>:
80010028:	0000                	.insn	2, 0x0000
8001002a:	0100                	.insn	2, 0x0100
8001002c:	0001                	.insn	2, 0x0001
8001002e:	feff                	.insn	2, 0xfeff
80010030:	fdfd                	.insn	2, 0xfdfd
80010032:	02fe                	.insn	2, 0x02fe
80010034:	0f08                	.insn	2, 0x0f08
80010036:	1915                	.insn	2, 0x1915
80010038:	1519                	.insn	2, 0x1519
8001003a:	fe02080f          	.insn	4, 0xfe02080f
8001003e:	fdfd                	.insn	2, 0xfdfd
80010040:	fffe                	.insn	2, 0xfffe
80010042:	0100                	.insn	2, 0x0100
80010044:	0001                	.insn	2, 0x0001
	...

Disassembly of section .riscv.attributes:

00000000 <.riscv.attributes>:
   0:	2f41                	.insn	2, 0x2f41
   2:	0000                	.insn	2, 0x0000
   4:	7200                	.insn	2, 0x7200
   6:	7369                	.insn	2, 0x7369
   8:	01007663          	bgeu	zero,a6,14 <_start-0x7fffffec>
   c:	0025                	.insn	2, 0x0025
   e:	0000                	.insn	2, 0x0000
  10:	1004                	.insn	2, 0x1004
  12:	7205                	.insn	2, 0x7205
  14:	3376                	.insn	2, 0x3376
  16:	6932                	.insn	2, 0x6932
  18:	7032                	.insn	2, 0x7032
  1a:	5f31                	.insn	2, 0x5f31
  1c:	326d                	.insn	2, 0x326d
  1e:	3070                	.insn	2, 0x3070
  20:	705f 7030 3531      	.insn	6, 0x35317030705f
  26:	7a5f 6d6d 6c75      	.insn	6, 0x6c756d6d7a5f
  2c:	7031                	.insn	2, 0x7031
  2e:	0030                	.insn	2, 0x0030

Disassembly of section .comment:

00000000 <.comment>:
   0:	3a434347          	.insn	4, 0x3a434347
   4:	2820                	.insn	2, 0x2820
   6:	66663667          	.insn	4, 0x66663667
   a:	6664                	.insn	2, 0x6664
   c:	3764                	.insn	2, 0x3764
   e:	31383633          	.insn	4, 0x31383633
  12:	2938                	.insn	2, 0x2938
  14:	3120                	.insn	2, 0x3120
  16:	2e36                	.insn	2, 0x2e36
  18:	2e30                	.insn	2, 0x2e30
  1a:	2030                	.insn	2, 0x2030
  1c:	3032                	.insn	2, 0x3032
  1e:	3532                	.insn	2, 0x3532
  20:	3830                	.insn	2, 0x3830
  22:	3331                	.insn	2, 0x3331
  24:	2820                	.insn	2, 0x2820
  26:	7865                	.insn	2, 0x7865
  28:	6570                	.insn	2, 0x6570
  2a:	6972                	.insn	2, 0x6972
  2c:	656d                	.insn	2, 0x656d
  2e:	746e                	.insn	2, 0x746e
  30:	6c61                	.insn	2, 0x6c61
  32:	0029                	.insn	2, 0x0029
